; ModuleID = '35/2091.c'
source_filename = "35/2091.c"
target datalayout = "e-m:e-p270:32:32-p271:32:32-p272:64:64-i64:64-f80:128-n8:16:32:64-S128"
target triple = "x86_64-pc-linux-gnu"

@.str = private unnamed_addr constant [6 x i8] c"%d,%d\00", align 1
@N = common dso_local global i32 0, align 4
@M = common dso_local global i32 0, align 4
@mincol = common dso_local global [10 x i32] zeroinitializer, align 16
@maxrow = common dso_local global [10 x i32] zeroinitializer, align 16
@.str.1 = private unnamed_addr constant [3 x i8] c"%d\00", align 1
@data = common dso_local global [10 x [10 x i32]] zeroinitializer, align 16
@.str.2 = private unnamed_addr constant [7 x i8] c"%d+%d\0A\00", align 1
@.str.3 = private unnamed_addr constant [4 x i8] c"No\0A\00", align 1

; Function Attrs: noinline nounwind uwtable
define dso_local i32 @main() #0 {
  %1 = alloca i32, align 4
  %2 = alloca i32, align 4
  %3 = alloca i32, align 4
  %4 = alloca i32, align 4
  store i32 0, i32* %1, align 4
  store i32 0, i32* %4, align 4
  %5 = call i32 (i8*, ...) @__isoc99_scanf(i8* getelementptr inbounds ([6 x i8], [6 x i8]* @.str, i64 0, i64 0), i32* @N, i32* @M)
  store i32 0, i32* %2, align 4
  br label %6

6:                                                ; preds = %16, %0
  %7 = load i32, i32* %2, align 4
  %8 = icmp slt i32 %7, 10
  br i1 %8, label %9, label %19

9:                                                ; preds = %6
  %10 = load i32, i32* %2, align 4
  %11 = sext i32 %10 to i64
  %12 = getelementptr inbounds [10 x i32], [10 x i32]* @mincol, i64 0, i64 %11
  store i32 2147483647, i32* %12, align 4
  %13 = load i32, i32* %2, align 4
  %14 = sext i32 %13 to i64
  %15 = getelementptr inbounds [10 x i32], [10 x i32]* @maxrow, i64 0, i64 %14
  store i32 -2147483647, i32* %15, align 4
  br label %16

16:                                               ; preds = %9
  %17 = load i32, i32* %2, align 4
  %18 = add nsw i32 %17, 1
  store i32 %18, i32* %2, align 4
  br label %6

19:                                               ; preds = %6
  store i32 0, i32* %2, align 4
  br label %20

20:                                               ; preds = %89, %19
  %21 = load i32, i32* %2, align 4
  %22 = load i32, i32* @N, align 4
  %23 = icmp slt i32 %21, %22
  br i1 %23, label %24, label %92

24:                                               ; preds = %20
  store i32 0, i32* %3, align 4
  br label %25

25:                                               ; preds = %85, %24
  %26 = load i32, i32* %3, align 4
  %27 = load i32, i32* @M, align 4
  %28 = icmp slt i32 %26, %27
  br i1 %28, label %29, label %88

29:                                               ; preds = %25
  %30 = load i32, i32* %2, align 4
  %31 = sext i32 %30 to i64
  %32 = getelementptr inbounds [10 x [10 x i32]], [10 x [10 x i32]]* @data, i64 0, i64 %31
  %33 = load i32, i32* %3, align 4
  %34 = sext i32 %33 to i64
  %35 = getelementptr inbounds [10 x i32], [10 x i32]* %32, i64 0, i64 %34
  %36 = call i32 (i8*, ...) @__isoc99_scanf(i8* getelementptr inbounds ([3 x i8], [3 x i8]* @.str.1, i64 0, i64 0), i32* %35)
  %37 = load i32, i32* %2, align 4
  %38 = sext i32 %37 to i64
  %39 = getelementptr inbounds [10 x [10 x i32]], [10 x [10 x i32]]* @data, i64 0, i64 %38
  %40 = load i32, i32* %3, align 4
  %41 = sext i32 %40 to i64
  %42 = getelementptr inbounds [10 x i32], [10 x i32]* %39, i64 0, i64 %41
  %43 = load i32, i32* %42, align 4
  %44 = load i32, i32* %3, align 4
  %45 = sext i32 %44 to i64
  %46 = getelementptr inbounds [10 x i32], [10 x i32]* @mincol, i64 0, i64 %45
  %47 = load i32, i32* %46, align 4
  %48 = icmp slt i32 %43, %47
  br i1 %48, label %49, label %60

49:                                               ; preds = %29
  %50 = load i32, i32* %2, align 4
  %51 = sext i32 %50 to i64
  %52 = getelementptr inbounds [10 x [10 x i32]], [10 x [10 x i32]]* @data, i64 0, i64 %51
  %53 = load i32, i32* %3, align 4
  %54 = sext i32 %53 to i64
  %55 = getelementptr inbounds [10 x i32], [10 x i32]* %52, i64 0, i64 %54
  %56 = load i32, i32* %55, align 4
  %57 = load i32, i32* %3, align 4
  %58 = sext i32 %57 to i64
  %59 = getelementptr inbounds [10 x i32], [10 x i32]* @mincol, i64 0, i64 %58
  store i32 %56, i32* %59, align 4
  br label %60

60:                                               ; preds = %49, %29
  %61 = load i32, i32* %2, align 4
  %62 = sext i32 %61 to i64
  %63 = getelementptr inbounds [10 x [10 x i32]], [10 x [10 x i32]]* @data, i64 0, i64 %62
  %64 = load i32, i32* %3, align 4
  %65 = sext i32 %64 to i64
  %66 = getelementptr inbounds [10 x i32], [10 x i32]* %63, i64 0, i64 %65
  %67 = load i32, i32* %66, align 4
  %68 = load i32, i32* %2, align 4
  %69 = sext i32 %68 to i64
  %70 = getelementptr inbounds [10 x i32], [10 x i32]* @maxrow, i64 0, i64 %69
  %71 = load i32, i32* %70, align 4
  %72 = icmp sgt i32 %67, %71
  br i1 %72, label %73, label %84

73:                                               ; preds = %60
  %74 = load i32, i32* %2, align 4
  %75 = sext i32 %74 to i64
  %76 = getelementptr inbounds [10 x [10 x i32]], [10 x [10 x i32]]* @data, i64 0, i64 %75
  %77 = load i32, i32* %3, align 4
  %78 = sext i32 %77 to i64
  %79 = getelementptr inbounds [10 x i32], [10 x i32]* %76, i64 0, i64 %78
  %80 = load i32, i32* %79, align 4
  %81 = load i32, i32* %2, align 4
  %82 = sext i32 %81 to i64
  %83 = getelementptr inbounds [10 x i32], [10 x i32]* @maxrow, i64 0, i64 %82
  store i32 %80, i32* %83, align 4
  br label %84

84:                                               ; preds = %73, %60
  br label %85

85:                                               ; preds = %84
  %86 = load i32, i32* %3, align 4
  %87 = add nsw i32 %86, 1
  store i32 %87, i32* %3, align 4
  br label %25

88:                                               ; preds = %25
  br label %89

89:                                               ; preds = %88
  %90 = load i32, i32* %2, align 4
  %91 = add nsw i32 %90, 1
  store i32 %91, i32* %2, align 4
  br label %20

92:                                               ; preds = %20
  store i32 0, i32* %2, align 4
  br label %93

93:                                               ; preds = %137, %92
  %94 = load i32, i32* %2, align 4
  %95 = load i32, i32* @N, align 4
  %96 = icmp slt i32 %94, %95
  br i1 %96, label %97, label %140

97:                                               ; preds = %93
  store i32 0, i32* %3, align 4
  br label %98

98:                                               ; preds = %133, %97
  %99 = load i32, i32* %3, align 4
  %100 = load i32, i32* @M, align 4
  %101 = icmp slt i32 %99, %100
  br i1 %101, label %102, label %136

102:                                              ; preds = %98
  %103 = load i32, i32* %3, align 4
  %104 = sext i32 %103 to i64
  %105 = getelementptr inbounds [10 x i32], [10 x i32]* @mincol, i64 0, i64 %104
  %106 = load i32, i32* %105, align 4
  %107 = load i32, i32* %2, align 4
  %108 = sext i32 %107 to i64
  %109 = getelementptr inbounds [10 x [10 x i32]], [10 x [10 x i32]]* @data, i64 0, i64 %108
  %110 = load i32, i32* %3, align 4
  %111 = sext i32 %110 to i64
  %112 = getelementptr inbounds [10 x i32], [10 x i32]* %109, i64 0, i64 %111
  %113 = load i32, i32* %112, align 4
  %114 = icmp eq i32 %106, %113
  br i1 %114, label %115, label %132

115:                                              ; preds = %102
  %116 = load i32, i32* %2, align 4
  %117 = sext i32 %116 to i64
  %118 = getelementptr inbounds [10 x i32], [10 x i32]* @maxrow, i64 0, i64 %117
  %119 = load i32, i32* %118, align 4
  %120 = load i32, i32* %2, align 4
  %121 = sext i32 %120 to i64
  %122 = getelementptr inbounds [10 x [10 x i32]], [10 x [10 x i32]]* @data, i64 0, i64 %121
  %123 = load i32, i32* %3, align 4
  %124 = sext i32 %123 to i64
  %125 = getelementptr inbounds [10 x i32], [10 x i32]* %122, i64 0, i64 %124
  %126 = load i32, i32* %125, align 4
  %127 = icmp eq i32 %119, %126
  br i1 %127, label %128, label %132

128:                                              ; preds = %115
  store i32 1, i32* %4, align 4
  %129 = load i32, i32* %2, align 4
  %130 = load i32, i32* %3, align 4
  %131 = call i32 (i8*, ...) @printf(i8* getelementptr inbounds ([7 x i8], [7 x i8]* @.str.2, i64 0, i64 0), i32 %129, i32 %130)
  br label %132

132:                                              ; preds = %128, %115, %102
  br label %133

133:                                              ; preds = %132
  %134 = load i32, i32* %3, align 4
  %135 = add nsw i32 %134, 1
  store i32 %135, i32* %3, align 4
  br label %98

136:                                              ; preds = %98
  br label %137

137:                                              ; preds = %136
  %138 = load i32, i32* %2, align 4
  %139 = add nsw i32 %138, 1
  store i32 %139, i32* %2, align 4
  br label %93

140:                                              ; preds = %93
  %141 = load i32, i32* %4, align 4
  %142 = icmp ne i32 %141, 0
  br i1 %142, label %145, label %143

143:                                              ; preds = %140
  %144 = call i32 (i8*, ...) @printf(i8* getelementptr inbounds ([4 x i8], [4 x i8]* @.str.3, i64 0, i64 0))
  br label %145

145:                                              ; preds = %143, %140
  ret i32 0
}

declare dso_local i32 @__isoc99_scanf(i8*, ...) #1

declare dso_local i32 @printf(i8*, ...) #1


!llvm.module.flags = !{!0}
!llvm.ident = !{!1}

!0 = !{i32 1, !"wchar_size", i32 4}
!1 = !{!"clang version 10.0.0-4ubuntu1 "}
